target datalayout = "e-m:e-p270:32:32-p271:32:32-p272:64:64-i64:64-i128:128-f80:128-n8:16:32:64-S128"
target triple = "x86_64-pc-linux-gnu"

%struct.lua_State = type { %struct.GCRef, i8, i8, i8, i8, %struct.MRef, %struct.GCRef, ptr, ptr, %struct.MRef, %struct.MRef, %struct.GCRef, %struct.GCRef, ptr, i32 }
%struct.MRef = type { i64 }
%struct.GCRef = type { i64 }
%union.TValue = type { i64 }
%struct.GCstr = type { %struct.GCRef, i8, i8, i8, i8, i32, i32, i32 }
%struct.GCfuncC = type { %struct.GCRef, i8, i8, i8, i8, %struct.GCRef, %struct.GCRef, %struct.MRef, ptr, [1 x %union.TValue] }
%struct.global_State = type { ptr, ptr, %struct.GCState, %struct.GCstr, i8, i8, i8, i8, %struct.StrInternState, i32, %struct.GCRef, %struct.SBuf, %union.TValue, %union.TValue, %struct.Node, %union.TValue, %struct.GCupval, i32, i32, ptr, ptr, ptr, i32, i32, %struct.GCRef, %struct.MRef, %struct.MRef, %struct.PRNGState, [39 x %struct.GCRef] }
%struct.GCState = type { i64, i64, i8, i8, i8, i8, i32, %struct.GCRef, %struct.MRef, %struct.GCRef, %struct.GCRef, %struct.GCRef, %struct.GCRef, i64, i64, i32, i32, %struct.MRef }
%struct.StrInternState = type { ptr, i32, i32, i32, i8, i8, i8, i8, i64 }
%struct.SBuf = type { ptr, ptr, ptr, %struct.MRef }
%struct.Node = type { %union.TValue, %union.TValue, %struct.MRef }
%struct.GCupval = type { %struct.GCRef, i8, i8, i8, i8, %union.anon, %struct.MRef, i32 }
%union.anon = type { %struct.anon.1 }
%struct.anon.1 = type { %struct.GCRef, %struct.GCRef }
%struct.PRNGState = type { [4 x i64] }
%struct.GG_State = type { %struct.lua_State, %struct.global_State, %struct.jit_State, [64 x i16], [243 x ptr], [57 x i32] }
%struct.jit_State = type { %struct.GCtrace, ptr, ptr, ptr, ptr, ptr, ptr, i32, i32, i32, i8, i8, %struct.IRType1, i8, %struct.FoldState, ptr, i32, i32, i32, i32, i32, i32, i32, [1 x i32], [5 x %union.TValue], [3 x %union.TValue], ptr, i32, i32, i32, i32, ptr, ptr, i32, i32, i8, ptr, i32, i32, i16, [101 x i16], [258 x i32], [15 x i32], [16 x ptr], [64 x %struct.HotPenalty], i32, [16 x %struct.BPropEntry], i32, %struct.ScEvEntry, ptr, i32, i32, i32, ptr, i32, i32, ptr, ptr, ptr, i64, i64, %union.TValue, ptr, i32, i32 }
%struct.GCtrace = type { %struct.GCRef, i8, i8, i16, i32, i32, %struct.GCRef, ptr, i32, i32, ptr, ptr, %struct.GCRef, %struct.MRef, i32, i32, ptr, i32, i16, i16, i16, i16, i16, i16, i16, i8, i8, i8, i8 }
%struct.IRType1 = type { i8 }
%struct.FoldState = type { %union.IRIns, [2 x %union.IRIns], [2 x %union.IRIns] }
%union.IRIns = type { %struct.GCRef }
%struct.HotPenalty = type { %struct.MRef, i16, i16 }
%struct.BPropEntry = type { i16, i16, i32 }
%struct.ScEvEntry = type { %struct.MRef, i16, i16, i16, i16, %struct.IRType1, i8 }

@lj_lib_init_coroutine = internal constant [57 x i8] c"\1E\0D\07\06status\07running\0Bisyieldable\06createEyieldFresume\FE\04wrap\FF", align 16
@.str.4 = private unnamed_addr constant [24 x i8] c"store to dead GC object\00", align 1

; Function Attrs: alwaysinline nounwind uwtable
define internal void @checklivetv(ptr noundef %0, ptr noundef %1, ptr noundef %2) #1 {
  %4 = alloca ptr, align 8
  %5 = alloca ptr, align 8
  %6 = alloca ptr, align 8
  store ptr %0, ptr %4, align 8, !tbaa !4
  store ptr %1, ptr %5, align 8, !tbaa !17
  store ptr %2, ptr %6, align 8, !tbaa !25
  ret void
}

; Function Attrs: alwaysinline nounwind uwtable
define internal void @setgcVraw(ptr noundef %0, ptr noundef %1, i32 noundef %2) #1 {
  %4 = alloca ptr, align 8
  %5 = alloca ptr, align 8
  %6 = alloca i32, align 4
  store ptr %0, ptr %4, align 8, !tbaa !17
  store ptr %1, ptr %5, align 8, !tbaa !27
  store i32 %2, ptr %6, align 4, !tbaa !29
  %7 = load ptr, ptr %5, align 8, !tbaa !27
  %8 = ptrtoint ptr %7 to i64
  %9 = load i32, ptr %6, align 4, !tbaa !29
  %10 = zext i32 %9 to i64
  %11 = shl i64 %10, 47
  %12 = or i64 %8, %11
  %13 = load ptr, ptr %4, align 8, !tbaa !17
  %14 = getelementptr inbounds nuw %struct.GCRef, ptr %13, i32 0, i32 0
  store i64 %12, ptr %14, align 8, !tbaa !16
  ret void
}

; Function Attrs: alwaysinline nounwind uwtable
define internal void @setgcV(ptr noundef %0, ptr noundef %1, ptr noundef %2, i32 noundef %3) #1 {
  %5 = alloca ptr, align 8
  %6 = alloca ptr, align 8
  %7 = alloca ptr, align 8
  %8 = alloca i32, align 4
  store ptr %0, ptr %5, align 8, !tbaa !4
  store ptr %1, ptr %6, align 8, !tbaa !17
  store ptr %2, ptr %7, align 8, !tbaa !27
  store i32 %3, ptr %8, align 4, !tbaa !29
  %9 = load ptr, ptr %6, align 8, !tbaa !17
  %10 = load ptr, ptr %7, align 8, !tbaa !27
  %11 = load i32, ptr %8, align 4, !tbaa !29
  call void @setgcVraw(ptr noundef %9, ptr noundef %10, i32 noundef %11)
  %12 = load ptr, ptr %5, align 8, !tbaa !4
  %13 = load ptr, ptr %6, align 8, !tbaa !17
  call void @checklivetv(ptr noundef %12, ptr noundef %13, ptr noundef @.str.4)
  ret void
}

; Function Attrs: alwaysinline nounwind uwtable
define internal void @setfuncV(ptr noundef %0, ptr noundef %1, ptr noundef %2) #1 {
  %4 = alloca ptr, align 8
  %5 = alloca ptr, align 8
  %6 = alloca ptr, align 8
  store ptr %0, ptr %4, align 8, !tbaa !4
  store ptr %1, ptr %5, align 8, !tbaa !17
  store ptr %2, ptr %6, align 8, !tbaa !34
  %7 = load ptr, ptr %4, align 8, !tbaa !4
  %8 = load ptr, ptr %5, align 8, !tbaa !17
  %9 = load ptr, ptr %6, align 8, !tbaa !34
  call void @setgcV(ptr noundef %7, ptr noundef %8, ptr noundef %9, i32 noundef -9)
  ret void
}

; Function Attrs: nounwind uwtable
define internal void @setpc_wrap_aux(ptr noundef %0, ptr noundef %1) #3 {
  %3 = alloca ptr, align 8
  %4 = alloca ptr, align 8
  store ptr %0, ptr %3, align 8, !tbaa !4
  store ptr %1, ptr %4, align 8, !tbaa !34
  %5 = load ptr, ptr %3, align 8, !tbaa !4
  %6 = getelementptr inbounds nuw %struct.lua_State, ptr %5, i32 0, i32 5
  %7 = getelementptr inbounds nuw %struct.MRef, ptr %6, i32 0, i32 0
  %8 = load i64, ptr %7, align 8, !tbaa !33
  %9 = inttoptr i64 %8 to ptr
  %10 = getelementptr inbounds i8, ptr %9, i64 -96
  %11 = getelementptr inbounds nuw %struct.GG_State, ptr %10, i32 0, i32 5
  %12 = load i8, ptr getelementptr inbounds ([57 x i8], ptr @lj_lib_init_coroutine, i64 0, i64 1), align 1, !tbaa !16
  %13 = zext i8 %12 to i32
  %14 = add nsw i32 %13, 2
  %15 = sext i32 %14 to i64
  %16 = getelementptr inbounds [57 x i32], ptr %11, i64 0, i64 %15
  %17 = ptrtoint ptr %16 to i64
  %18 = load ptr, ptr %4, align 8, !tbaa !34
  %19 = getelementptr inbounds nuw %struct.GCfuncC, ptr %18, i32 0, i32 7
  %20 = getelementptr inbounds nuw %struct.MRef, ptr %19, i32 0, i32 0
  store i64 %17, ptr %20, align 8, !tbaa !16
  ret void
}

; Function Attrs: nounwind uwtable
define internal i32 @lj_cf_coroutine_create(ptr noundef %0) #3 {
  %2 = alloca ptr, align 8
  %3 = alloca ptr, align 8
  store ptr %0, ptr %2, align 8, !tbaa !4
  call void @llvm.lifetime.start.p0(i64 8, ptr %3) #11
  %4 = load ptr, ptr %2, align 8, !tbaa !4
  %5 = getelementptr inbounds nuw %struct.lua_State, ptr %4, i32 0, i32 7
  %6 = load ptr, ptr %5, align 8, !tbaa !32
  %7 = load ptr, ptr %2, align 8, !tbaa !4
  %8 = getelementptr inbounds nuw %struct.lua_State, ptr %7, i32 0, i32 8
  %9 = load ptr, ptr %8, align 8, !tbaa !9
  %10 = icmp ult ptr %6, %9
  br i1 %10, label %11, label %19

11:                                               ; preds = %1
  %12 = load ptr, ptr %2, align 8, !tbaa !4
  %13 = getelementptr inbounds nuw %struct.lua_State, ptr %12, i32 0, i32 7
  %14 = load ptr, ptr %13, align 8, !tbaa !32
  %15 = load i64, ptr %14, align 8, !tbaa !16
  %16 = ashr i64 %15, 47
  %17 = trunc i64 %16 to i32
  %18 = icmp eq i32 %17, -9
  br i1 %18, label %21, label %19

19:                                               ; preds = %11, %1
  %20 = load ptr, ptr %2, align 8, !tbaa !4
  call void @lj_err_argt(ptr noundef %20, i32 noundef 1, i32 noundef 6) #10
  unreachable

21:                                               ; preds = %11
  %22 = load ptr, ptr %2, align 8, !tbaa !4
  %23 = call ptr @lua_newthread(ptr noundef %22)
  store ptr %23, ptr %3, align 8, !tbaa !4
  %24 = load ptr, ptr %2, align 8, !tbaa !4
  %25 = load ptr, ptr %3, align 8, !tbaa !4
  %26 = getelementptr inbounds nuw %struct.lua_State, ptr %25, i32 0, i32 8
  %27 = load ptr, ptr %26, align 8, !tbaa !9
  %28 = getelementptr inbounds nuw %union.TValue, ptr %27, i32 1
  store ptr %28, ptr %26, align 8, !tbaa !9
  %29 = load ptr, ptr %2, align 8, !tbaa !4
  %30 = getelementptr inbounds nuw %struct.lua_State, ptr %29, i32 0, i32 7
  %31 = load ptr, ptr %30, align 8, !tbaa !32
  %32 = getelementptr inbounds nuw %struct.GCRef, ptr %31, i32 0, i32 0
  %33 = load i64, ptr %32, align 8, !tbaa !16
  %34 = and i64 %33, 140737488355327
  %35 = inttoptr i64 %34 to ptr
  call void @setfuncV(ptr noundef %24, ptr noundef %27, ptr noundef %35)
  call void @llvm.lifetime.end.p0(i64 8, ptr %3) #11
  ret i32 1
}

; Function Attrs: nounwind uwtable
define internal i32 @lj_cf_coroutine_wrap(ptr noundef %0) #3 {
  %2 = alloca ptr, align 8
  %3 = alloca ptr, align 8
  store ptr %0, ptr %2, align 8, !tbaa !4
  call void @llvm.lifetime.start.p0(i64 8, ptr %3) #11
  %4 = load ptr, ptr %2, align 8, !tbaa !4
  %5 = call i32 @lj_cf_coroutine_create(ptr noundef %4)
  %6 = load ptr, ptr %2, align 8, !tbaa !4
  %7 = call ptr @lj_lib_pushcc(ptr noundef %6, ptr noundef @lj_ffh_coroutine_wrap_aux, i32 noundef 36, i32 noundef 1)
  store ptr %7, ptr %3, align 8, !tbaa !34
  %8 = load ptr, ptr %2, align 8, !tbaa !4
  %9 = load ptr, ptr %3, align 8, !tbaa !34
  call void @setpc_wrap_aux(ptr noundef %8, ptr noundef %9)
  call void @llvm.lifetime.end.p0(i64 8, ptr %3) #11
  ret i32 1
}