; Function Attrs: nounwind uwtable
define internal noundef i32 @lj_cf_coroutine_wrap(ptr noundef %0) #2 {
  %2 = getelementptr inbounds nuw i8, ptr %0, i64 32
  %3 = load ptr, ptr %2, align 8, !tbaa !19
  %4 = getelementptr inbounds nuw i8, ptr %0, i64 40
  %5 = load ptr, ptr %4, align 8, !tbaa !4
  %6 = icmp ult ptr %3, %5
  br i1 %6, label %7, label %10

7:                                                ; preds = %1
  %8 = load i64, ptr %3, align 8, !tbaa !14
  %.mask.i = and i64 %8, -140737488355328
  %9 = icmp eq i64 %.mask.i, -1266637395197952
  br i1 %9, label %lj_cf_coroutine_create.exit, label %10

10:                                               ; preds = %7, %1
  tail call void @lj_err_argt(ptr noundef nonnull %0, i32 noundef 1, i32 noundef 6) #10
  unreachable

lj_cf_coroutine_create.exit:                      ; preds = %7
  %11 = tail call ptr @lua_newthread(ptr noundef nonnull %0) #11
  %12 = getelementptr inbounds nuw i8, ptr %11, i64 40
  %13 = load ptr, ptr %12, align 8, !tbaa !4
  %14 = getelementptr inbounds nuw i8, ptr %13, i64 8
  store ptr %14, ptr %12, align 8, !tbaa !4
  %15 = load ptr, ptr %2, align 8, !tbaa !19
  %16 = load i64, ptr %15, align 8, !tbaa !14
  %17 = and i64 %16, 140737488355327
  %18 = or disjoint i64 %17, -1266637395197952
  store i64 %18, ptr %13, align 8, !tbaa !14
  %19 = tail call ptr @lj_lib_pushcc(ptr noundef nonnull %0, ptr noundef nonnull @lj_ffh_coroutine_wrap_aux, i32 noundef 36, i32 noundef 1) #11
  %20 = getelementptr i8, ptr %0, i64 16
  %.val = load i64, ptr %20, align 8, !tbaa !20
  %21 = add nuw i64 %.val, 5980
  %22 = getelementptr inbounds nuw i8, ptr %19, i64 32
  store i64 %21, ptr %22, align 8, !tbaa !14
  ret i32 1
}